target datalayout = "e-m:e-p270:32:32-p271:32:32-p272:64:64-i64:64-i128:128-f80:128-n8:16:32:64-S128"
target triple = "x86_64-pc-linux-gnu"

%struct.lua_TValue = type { %union.Value, [1 x i32], i32 }
%union.Value = type { ptr }

; Function Attrs: alwaysinline mustprogress nounwind uwtable
define internal noundef double @_ZL13_mm_cvtsd_f64Dv2_d(<2 x double> noundef %0) #8 {
  %2 = alloca <2 x double>, align 16
  store <2 x double> %0, ptr %2, align 16, !tbaa !15
  %3 = load <2 x double>, ptr %2, align 16, !tbaa !15
  %4 = extractelement <2 x double> %3, i32 0
  ret double %4
}

; Function Attrs: alwaysinline mustprogress nounwind uwtable
define internal noundef <2 x double> @_ZL10_mm_set_sdd(double noundef %0) #8 {
  %2 = alloca double, align 8
  %3 = alloca <2 x double>, align 16
  store double %0, ptr %2, align 8, !tbaa !16
  %4 = load double, ptr %2, align 8, !tbaa !16
  %5 = insertelement <2 x double> poison, double %4, i32 0
  %6 = insertelement <2 x double> %5, double 0.000000e+00, i32 1
  store <2 x double> %6, ptr %3, align 16, !tbaa !15
  %7 = load <2 x double>, ptr %3, align 16, !tbaa !15
  ret <2 x double> %7
}

; Function Attrs: inlinehint mustprogress nounwind uwtable
define linkonce_odr dso_local noundef double @_Z13roundsd_sse41ILi3EEdd(double noundef %0) #10 comdat {
  %2 = alloca double, align 8
  %3 = alloca <2 x double>, align 16
  %4 = alloca <2 x double>, align 16
  store double %0, ptr %2, align 8, !tbaa !16
  call void @llvm.lifetime.start.p0(i64 16, ptr %3) #17
  %5 = load double, ptr %2, align 8, !tbaa !16
  %6 = call noundef <2 x double> @_ZL10_mm_set_sdd(double noundef %5)
  store <2 x double> %6, ptr %3, align 16, !tbaa !15
  call void @llvm.lifetime.start.p0(i64 16, ptr %4) #17
  %7 = load <2 x double>, ptr %3, align 16, !tbaa !15
  %8 = load <2 x double>, ptr %3, align 16, !tbaa !15
  %9 = call <2 x double> @llvm.x86.sse41.round.sd(<2 x double> %7, <2 x double> %8, i32 11)
  store <2 x double> %9, ptr %4, align 16, !tbaa !15
  %10 = load <2 x double>, ptr %4, align 16, !tbaa !15
  %11 = call noundef double @_ZL13_mm_cvtsd_f64Dv2_d(<2 x double> noundef %10)
  call void @llvm.lifetime.end.p0(i64 16, ptr %4) #17
  call void @llvm.lifetime.end.p0(i64 16, ptr %3) #17
  ret double %11
}

; Function Attrs: mustprogress uwtable
define internal noundef i32 @_ZL17luauF_round_sse41P9lua_StateP10lua_TValueS2_iS2_i(ptr noundef %0, ptr noundef %1, ptr noundef %2, i32 noundef %3, ptr noundef %4, i32 noundef %5) #2 {
  %7 = alloca i32, align 4
  %8 = alloca ptr, align 8
  %9 = alloca ptr, align 8
  %10 = alloca ptr, align 8
  %11 = alloca i32, align 4
  %12 = alloca ptr, align 8
  %13 = alloca i32, align 4
  %14 = alloca double, align 8
  %15 = alloca double, align 8
  %16 = alloca ptr, align 8
  store ptr %0, ptr %8, align 8, !tbaa !4
  store ptr %1, ptr %9, align 8, !tbaa !9
  store ptr %2, ptr %10, align 8, !tbaa !9
  store i32 %3, ptr %11, align 4, !tbaa !11
  store ptr %4, ptr %12, align 8, !tbaa !9
  store i32 %5, ptr %13, align 4, !tbaa !11
  %17 = load i32, ptr %13, align 4, !tbaa !11
  %18 = icmp sge i32 %17, 1
  br i1 %18, label %19, label %42

19:                                               ; preds = %6
  %20 = load i32, ptr %11, align 4, !tbaa !11
  %21 = icmp sle i32 %20, 1
  br i1 %21, label %22, label %42

22:                                               ; preds = %19
  %23 = load ptr, ptr %10, align 8, !tbaa !9
  %24 = getelementptr inbounds nuw %struct.lua_TValue, ptr %23, i32 0, i32 2
  %25 = load i32, ptr %24, align 4, !tbaa !13
  %26 = icmp eq i32 %25, 3
  br i1 %26, label %27, label %42

27:                                               ; preds = %22
  call void @llvm.lifetime.start.p0(i64 8, ptr %14) #17
  %28 = load ptr, ptr %10, align 8, !tbaa !9
  %29 = getelementptr inbounds nuw %struct.lua_TValue, ptr %28, i32 0, i32 0
  %30 = load double, ptr %29, align 8, !tbaa !15
  store double %30, ptr %14, align 8, !tbaa !16
  call void @llvm.lifetime.start.p0(i64 8, ptr %15) #17
  store double 0x3FDFFFFFFFFFFFFF, ptr %15, align 8, !tbaa !16
  call void @llvm.lifetime.start.p0(i64 8, ptr %16) #17
  %31 = load ptr, ptr %9, align 8, !tbaa !9
  store ptr %31, ptr %16, align 8, !tbaa !9
  %32 = load double, ptr %14, align 8, !tbaa !16
  %33 = load double, ptr %14, align 8, !tbaa !16
  %34 = fcmp olt double %33, 0.000000e+00
  %35 = select i1 %34, double 0xBFDFFFFFFFFFFFFF, double 0x3FDFFFFFFFFFFFFF
  %36 = fadd double %32, %35
  %37 = call noundef double @_Z13roundsd_sse41ILi3EEdd(double noundef %36)
  %38 = load ptr, ptr %16, align 8, !tbaa !9
  %39 = getelementptr inbounds nuw %struct.lua_TValue, ptr %38, i32 0, i32 0
  store double %37, ptr %39, align 8, !tbaa !15
  %40 = load ptr, ptr %16, align 8, !tbaa !9
  %41 = getelementptr inbounds nuw %struct.lua_TValue, ptr %40, i32 0, i32 2
  store i32 3, ptr %41, align 4, !tbaa !13
  call void @llvm.lifetime.end.p0(i64 8, ptr %16) #17
  store i32 1, ptr %7, align 4
  call void @llvm.lifetime.end.p0(i64 8, ptr %15) #17
  call void @llvm.lifetime.end.p0(i64 8, ptr %14) #17
  br label %43

42:                                               ; preds = %22, %19, %6
  store i32 -1, ptr %7, align 4
  br label %43

43:                                               ; preds = %42, %27
  %44 = load i32, ptr %7, align 4
  ret i32 %44
}